target datalayout = "e-m:e-p270:32:32-p271:32:32-p272:64:64-i64:64-i128:128-f80:128-n8:16:32:64-S128"
target triple = "x86_64-pc-linux-gnu"

%class.Sample = type { ptr, ptr, ptr, ptr, ptr, i8, float, float, float, float, float, float, float, float, float, float, float, float, float, i32, i8, i8, i8, ptr, [9 x ptr], ptr, %class.SampleDebugDraw }
%class.SampleDebugDraw = type { %class.DebugDrawGL }
%class.DebugDrawGL = type { %struct.duDebugDraw }
%struct.duDebugDraw = type { ptr }

; Function Attrs: mustprogress nounwind uwtable
define dso_local void @_ZN6Sample19resetCommonSettingsEv(ptr noundef nonnull align 8 dereferenceable(200) %0) #0 align 2 {
  %2 = alloca ptr, align 8
  store ptr %0, ptr %2, align 8
  %3 = load ptr, ptr %2, align 8
  %4 = getelementptr inbounds %class.Sample, ptr %3, i32 0, i32 6
  store float 0x3FD3333340000000, ptr %4, align 4
  %5 = getelementptr inbounds %class.Sample, ptr %3, i32 0, i32 7
  store float 0x3FC99999A0000000, ptr %5, align 8
  %6 = getelementptr inbounds %class.Sample, ptr %3, i32 0, i32 8
  store float 2.000000e+00, ptr %6, align 4
  %7 = getelementptr inbounds %class.Sample, ptr %3, i32 0, i32 9
  store float 0x3FE3333340000000, ptr %7, align 8
  %8 = getelementptr inbounds %class.Sample, ptr %3, i32 0, i32 10
  store float 0x3FECCCCCC0000000, ptr %8, align 4
  %9 = getelementptr inbounds %class.Sample, ptr %3, i32 0, i32 11
  store float 4.500000e+01, ptr %9, align 8
  %10 = getelementptr inbounds %class.Sample, ptr %3, i32 0, i32 12
  store float 8.000000e+00, ptr %10, align 4
  %11 = getelementptr inbounds %class.Sample, ptr %3, i32 0, i32 13
  store float 2.000000e+01, ptr %11, align 8
  %12 = getelementptr inbounds %class.Sample, ptr %3, i32 0, i32 14
  store float 1.200000e+01, ptr %12, align 4
  %13 = getelementptr inbounds %class.Sample, ptr %3, i32 0, i32 15
  store float 0x3FF4CCCCC0000000, ptr %13, align 8
  %14 = getelementptr inbounds %class.Sample, ptr %3, i32 0, i32 16
  store float 6.000000e+00, ptr %14, align 4
  %15 = getelementptr inbounds %class.Sample, ptr %3, i32 0, i32 17
  store float 6.000000e+00, ptr %15, align 8
  %16 = getelementptr inbounds %class.Sample, ptr %3, i32 0, i32 18
  store float 1.000000e+00, ptr %16, align 4
  %17 = getelementptr inbounds %class.Sample, ptr %3, i32 0, i32 19
  store i32 0, ptr %17, align 8
  ret void
}