; Function Attrs: mustprogress nofree norecurse nosync nounwind willreturn memory(argmem: write) uwtable
define dso_local void @_ZN6Sample19resetCommonSettingsEv(ptr nocapture noundef nonnull writeonly align 8 dereferenceable(200) %0) local_unnamed_addr #4 align 2 {
  %2 = getelementptr inbounds i8, ptr %0, i64 44
  store <4 x float> <float 0x3FD3333340000000, float 0x3FC99999A0000000, float 2.000000e+00, float 0x3FE3333340000000>, ptr %2, align 4
  %3 = getelementptr inbounds i8, ptr %0, i64 60
  store <4 x float> <float 0x3FECCCCCC0000000, float 4.500000e+01, float 8.000000e+00, float 2.000000e+01>, ptr %3, align 4
  %4 = getelementptr inbounds i8, ptr %0, i64 76
  store <4 x float> <float 1.200000e+01, float 0x3FF4CCCCC0000000, float 6.000000e+00, float 6.000000e+00>, ptr %4, align 4
  %5 = getelementptr inbounds i8, ptr %0, i64 92
  store float 1.000000e+00, ptr %5, align 4
  %6 = getelementptr inbounds i8, ptr %0, i64 96
  store i32 0, ptr %6, align 8
  ret void
}